target datalayout = "e-m:e-p270:32:32-p271:32:32-p272:64:64-i64:64-i128:128-f80:128-n8:16:32:64-S128"
target triple = "x86_64-pc-linux-gnu"

%struct.mbedtls_ssl_cache_context = type { ptr, i32, i32 }
%struct.mbedtls_ssl_cache_entry = type { i64, [32 x i8], i64, ptr, i64, ptr }

; Function Attrs: nounwind uwtable
define internal void @ssl_cache_entry_zeroize(ptr noundef %0) #0 {
  %2 = alloca ptr, align 8
  store ptr %0, ptr %2, align 8, !tbaa !21
  %3 = load ptr, ptr %2, align 8, !tbaa !21
  %4 = icmp eq ptr %3, null
  br i1 %4, label %5, label %6

5:                                                ; preds = %1
  br label %20

6:                                                ; preds = %1
  %7 = load ptr, ptr %2, align 8, !tbaa !21
  %8 = getelementptr inbounds nuw %struct.mbedtls_ssl_cache_entry, ptr %7, i32 0, i32 3
  %9 = load ptr, ptr %8, align 8, !tbaa !22
  %10 = icmp ne ptr %9, null
  br i1 %10, label %11, label %18

11:                                               ; preds = %6
  %12 = load ptr, ptr %2, align 8, !tbaa !21
  %13 = getelementptr inbounds nuw %struct.mbedtls_ssl_cache_entry, ptr %12, i32 0, i32 3
  %14 = load ptr, ptr %13, align 8, !tbaa !22
  %15 = load ptr, ptr %2, align 8, !tbaa !21
  %16 = getelementptr inbounds nuw %struct.mbedtls_ssl_cache_entry, ptr %15, i32 0, i32 4
  %17 = load i64, ptr %16, align 8, !tbaa !24
  call void @mbedtls_zeroize_and_free(ptr noundef %14, i64 noundef %17)
  br label %18

18:                                               ; preds = %11, %6
  %19 = load ptr, ptr %2, align 8, !tbaa !21
  call void @mbedtls_platform_zeroize(ptr noundef %19, i64 noundef 72)
  br label %20

20:                                               ; preds = %18, %5
  ret void
}

; Function Attrs: nounwind uwtable
define internal i32 @ssl_cache_find_entry(ptr noundef %0, ptr noundef %1, i64 noundef %2, ptr noundef %3) #0 {
  %5 = alloca ptr, align 8
  %6 = alloca ptr, align 8
  %7 = alloca i64, align 8
  %8 = alloca ptr, align 8
  %9 = alloca i32, align 4
  %10 = alloca i64, align 8
  %11 = alloca ptr, align 8
  store ptr %0, ptr %5, align 8, !tbaa !3
  store ptr %1, ptr %6, align 8, !tbaa !14
  store i64 %2, ptr %7, align 8, !tbaa !16
  store ptr %3, ptr %8, align 8, !tbaa !25
  call void @llvm.lifetime.start.p0(i64 4, ptr %9) #8
  store i32 -32384, ptr %9, align 4, !tbaa !20
  call void @llvm.lifetime.start.p0(i64 8, ptr %10) #8
  %12 = call i64 @time(ptr noundef null) #8
  store i64 %12, ptr %10, align 8, !tbaa !16
  call void @llvm.lifetime.start.p0(i64 8, ptr %11) #8
  %13 = load ptr, ptr %5, align 8, !tbaa !3
  %14 = getelementptr inbounds nuw %struct.mbedtls_ssl_cache_context, ptr %13, i32 0, i32 0
  %15 = load ptr, ptr %14, align 8, !tbaa !28
  store ptr %15, ptr %11, align 8, !tbaa !21
  br label %16

16:                                               ; preds = %54, %4
  %17 = load ptr, ptr %11, align 8, !tbaa !21
  %18 = icmp ne ptr %17, null
  br i1 %18, label %19, label %58

19:                                               ; preds = %16
  %20 = load ptr, ptr %5, align 8, !tbaa !3
  %21 = getelementptr inbounds nuw %struct.mbedtls_ssl_cache_context, ptr %20, i32 0, i32 1
  %22 = load i32, ptr %21, align 8, !tbaa !8
  %23 = icmp ne i32 %22, 0
  br i1 %23, label %24, label %36

24:                                               ; preds = %19
  %25 = load i64, ptr %10, align 8, !tbaa !16
  %26 = load ptr, ptr %11, align 8, !tbaa !21
  %27 = getelementptr inbounds nuw %struct.mbedtls_ssl_cache_entry, ptr %26, i32 0, i32 0
  %28 = load i64, ptr %27, align 8, !tbaa !29
  %29 = sub nsw i64 %25, %28
  %30 = trunc i64 %29 to i32
  %31 = load ptr, ptr %5, align 8, !tbaa !3
  %32 = getelementptr inbounds nuw %struct.mbedtls_ssl_cache_context, ptr %31, i32 0, i32 1
  %33 = load i32, ptr %32, align 8, !tbaa !8
  %34 = icmp sgt i32 %30, %33
  br i1 %34, label %35, label %36

35:                                               ; preds = %24
  br label %54

36:                                               ; preds = %24, %19
  %37 = load i64, ptr %7, align 8, !tbaa !16
  %38 = load ptr, ptr %11, align 8, !tbaa !21
  %39 = getelementptr inbounds nuw %struct.mbedtls_ssl_cache_entry, ptr %38, i32 0, i32 2
  %40 = load i64, ptr %39, align 8, !tbaa !30
  %41 = icmp ne i64 %37, %40
  br i1 %41, label %52, label %42

42:                                               ; preds = %36
  %43 = load ptr, ptr %6, align 8, !tbaa !14
  %44 = load ptr, ptr %11, align 8, !tbaa !21
  %45 = getelementptr inbounds nuw %struct.mbedtls_ssl_cache_entry, ptr %44, i32 0, i32 1
  %46 = getelementptr inbounds [32 x i8], ptr %45, i64 0, i64 0
  %47 = load ptr, ptr %11, align 8, !tbaa !21
  %48 = getelementptr inbounds nuw %struct.mbedtls_ssl_cache_entry, ptr %47, i32 0, i32 2
  %49 = load i64, ptr %48, align 8, !tbaa !30
  %50 = call i32 @memcmp(ptr noundef %43, ptr noundef %46, i64 noundef %49) #9
  %51 = icmp ne i32 %50, 0
  br i1 %51, label %52, label %53

52:                                               ; preds = %42, %36
  br label %54

53:                                               ; preds = %42
  br label %58

54:                                               ; preds = %52, %35
  %55 = load ptr, ptr %11, align 8, !tbaa !21
  %56 = getelementptr inbounds nuw %struct.mbedtls_ssl_cache_entry, ptr %55, i32 0, i32 5
  %57 = load ptr, ptr %56, align 8, !tbaa !31
  store ptr %57, ptr %11, align 8, !tbaa !21
  br label %16, !llvm.loop !32

58:                                               ; preds = %53, %16
  %59 = load ptr, ptr %11, align 8, !tbaa !21
  %60 = icmp ne ptr %59, null
  br i1 %60, label %61, label %64

61:                                               ; preds = %58
  %62 = load ptr, ptr %11, align 8, !tbaa !21
  %63 = load ptr, ptr %8, align 8, !tbaa !25
  store ptr %62, ptr %63, align 8, !tbaa !21
  store i32 0, ptr %9, align 4, !tbaa !20
  br label %64

64:                                               ; preds = %61, %58
  %65 = load i32, ptr %9, align 4, !tbaa !20
  call void @llvm.lifetime.end.p0(i64 8, ptr %11) #8
  call void @llvm.lifetime.end.p0(i64 8, ptr %10) #8
  call void @llvm.lifetime.end.p0(i64 4, ptr %9) #8
  ret i32 %65
}

; Function Attrs: nounwind uwtable
define hidden i32 @mbedtls_ssl_cache_remove(ptr noundef %0, ptr noundef %1, i64 noundef %2) #0 {
  %4 = alloca ptr, align 8
  %5 = alloca ptr, align 8
  %6 = alloca i64, align 8
  %7 = alloca i32, align 4
  %8 = alloca ptr, align 8
  %9 = alloca ptr, align 8
  %10 = alloca ptr, align 8
  store ptr %0, ptr %4, align 8, !tbaa !13
  store ptr %1, ptr %5, align 8, !tbaa !14
  store i64 %2, ptr %6, align 8, !tbaa !16
  call void @llvm.lifetime.start.p0(i64 4, ptr %7) #8
  store i32 -110, ptr %7, align 4, !tbaa !20
  call void @llvm.lifetime.start.p0(i64 8, ptr %8) #8
  %11 = load ptr, ptr %4, align 8, !tbaa !13
  store ptr %11, ptr %8, align 8, !tbaa !3
  call void @llvm.lifetime.start.p0(i64 8, ptr %9) #8
  call void @llvm.lifetime.start.p0(i64 8, ptr %10) #8
  %12 = load ptr, ptr %8, align 8, !tbaa !3
  %13 = load ptr, ptr %5, align 8, !tbaa !14
  %14 = load i64, ptr %6, align 8, !tbaa !16
  %15 = call i32 @ssl_cache_find_entry(ptr noundef %12, ptr noundef %13, i64 noundef %14, ptr noundef %9)
  store i32 %15, ptr %7, align 4, !tbaa !20
  %16 = load i32, ptr %7, align 4, !tbaa !20
  %17 = icmp ne i32 %16, 0
  br i1 %17, label %18, label %19

18:                                               ; preds = %3
  store i32 0, ptr %7, align 4, !tbaa !20
  br label %61

19:                                               ; preds = %3
  %20 = load ptr, ptr %9, align 8, !tbaa !21
  %21 = load ptr, ptr %8, align 8, !tbaa !3
  %22 = getelementptr inbounds nuw %struct.mbedtls_ssl_cache_context, ptr %21, i32 0, i32 0
  %23 = load ptr, ptr %22, align 8, !tbaa !28
  %24 = icmp eq ptr %20, %23
  br i1 %24, label %25, label %31

25:                                               ; preds = %19
  %26 = load ptr, ptr %9, align 8, !tbaa !21
  %27 = getelementptr inbounds nuw %struct.mbedtls_ssl_cache_entry, ptr %26, i32 0, i32 5
  %28 = load ptr, ptr %27, align 8, !tbaa !31
  %29 = load ptr, ptr %8, align 8, !tbaa !3
  %30 = getelementptr inbounds nuw %struct.mbedtls_ssl_cache_context, ptr %29, i32 0, i32 0
  store ptr %28, ptr %30, align 8, !tbaa !28
  br label %58

31:                                               ; preds = %19
  %32 = load ptr, ptr %8, align 8, !tbaa !3
  %33 = getelementptr inbounds nuw %struct.mbedtls_ssl_cache_context, ptr %32, i32 0, i32 0
  %34 = load ptr, ptr %33, align 8, !tbaa !28
  store ptr %34, ptr %10, align 8, !tbaa !21
  br label %35

35:                                               ; preds = %53, %31
  %36 = load ptr, ptr %10, align 8, !tbaa !21
  %37 = getelementptr inbounds nuw %struct.mbedtls_ssl_cache_entry, ptr %36, i32 0, i32 5
  %38 = load ptr, ptr %37, align 8, !tbaa !31
  %39 = icmp ne ptr %38, null
  br i1 %39, label %40, label %57

40:                                               ; preds = %35
  %41 = load ptr, ptr %10, align 8, !tbaa !21
  %42 = getelementptr inbounds nuw %struct.mbedtls_ssl_cache_entry, ptr %41, i32 0, i32 5
  %43 = load ptr, ptr %42, align 8, !tbaa !31
  %44 = load ptr, ptr %9, align 8, !tbaa !21
  %45 = icmp eq ptr %43, %44
  br i1 %45, label %46, label %52

46:                                               ; preds = %40
  %47 = load ptr, ptr %9, align 8, !tbaa !21
  %48 = getelementptr inbounds nuw %struct.mbedtls_ssl_cache_entry, ptr %47, i32 0, i32 5
  %49 = load ptr, ptr %48, align 8, !tbaa !31
  %50 = load ptr, ptr %10, align 8, !tbaa !21
  %51 = getelementptr inbounds nuw %struct.mbedtls_ssl_cache_entry, ptr %50, i32 0, i32 5
  store ptr %49, ptr %51, align 8, !tbaa !31
  br label %57

52:                                               ; preds = %40
  br label %53

53:                                               ; preds = %52
  %54 = load ptr, ptr %10, align 8, !tbaa !21
  %55 = getelementptr inbounds nuw %struct.mbedtls_ssl_cache_entry, ptr %54, i32 0, i32 5
  %56 = load ptr, ptr %55, align 8, !tbaa !31
  store ptr %56, ptr %10, align 8, !tbaa !21
  br label %35, !llvm.loop !36

57:                                               ; preds = %46, %35
  br label %58

58:                                               ; preds = %57, %25
  %59 = load ptr, ptr %9, align 8, !tbaa !21
  call void @ssl_cache_entry_zeroize(ptr noundef %59)
  %60 = load ptr, ptr %9, align 8, !tbaa !21
  call void @free(ptr noundef %60) #8
  store i32 0, ptr %7, align 4, !tbaa !20
  br label %61

61:                                               ; preds = %58, %18
  %62 = load i32, ptr %7, align 4, !tbaa !20
  call void @llvm.lifetime.end.p0(i64 8, ptr %10) #8
  call void @llvm.lifetime.end.p0(i64 8, ptr %9) #8
  call void @llvm.lifetime.end.p0(i64 8, ptr %8) #8
  call void @llvm.lifetime.end.p0(i64 4, ptr %7) #8
  ret i32 %62
}