; Function Attrs: nounwind uwtable
define hidden noundef i32 @mbedtls_ssl_cache_remove(ptr noundef captures(none) %0, ptr noundef readonly captures(none) %1, i64 noundef %2) local_unnamed_addr #1 {
  %4 = tail call i64 @time(ptr noundef null) #10
  %.022.i = load ptr, ptr %0, align 8, !tbaa !11
  %.not23.i = icmp eq ptr %.022.i, null
  br i1 %.not23.i, label %ssl_cache_find_entry.exit.thread, label %.lr.ph.i

.lr.ph.i:                                         ; preds = %3
  %5 = getelementptr inbounds nuw i8, ptr %0, i64 8
  %6 = load i32, ptr %5, align 8, !tbaa !3
  %.not18.i = icmp eq i32 %6, 0
  br i1 %.not18.i, label %.lr.ph.split.us.i, label %.lr.ph.split.i

.lr.ph.split.us.i:                                ; preds = %.lr.ph.i, %11
  %.024.us.i = phi ptr [ %.0.us.i, %11 ], [ %.022.i, %.lr.ph.i ]
  %7 = getelementptr inbounds nuw i8, ptr %.024.us.i, i64 40
  %8 = load i64, ptr %7, align 8, !tbaa !12
  %.not19.us.i = icmp eq i64 %2, %8
  br i1 %.not19.us.i, label %9, label %11

9:                                                ; preds = %.lr.ph.split.us.i
  %10 = getelementptr inbounds nuw i8, ptr %.024.us.i, i64 8
  %bcmp.us.i = tail call i32 @bcmp(ptr readonly %1, ptr nonnull %10, i64 %2)
  %.not20.us.i = icmp eq i32 %bcmp.us.i, 0
  br i1 %.not20.us.i, label %ssl_cache_find_entry.exit, label %11

11:                                               ; preds = %9, %.lr.ph.split.us.i
  %12 = getelementptr inbounds nuw i8, ptr %.024.us.i, i64 64
  %.0.us.i = load ptr, ptr %12, align 8, !tbaa !11
  %.not.us.i = icmp eq ptr %.0.us.i, null
  br i1 %.not.us.i, label %ssl_cache_find_entry.exit.thread, label %.lr.ph.split.us.i, !llvm.loop !16

.lr.ph.split.i:                                   ; preds = %.lr.ph.i, %22
  %.024.i = phi ptr [ %.0.i, %22 ], [ %.022.i, %.lr.ph.i ]
  %13 = load i64, ptr %.024.i, align 8, !tbaa !18
  %14 = sub nsw i64 %4, %13
  %15 = trunc i64 %14 to i32
  %16 = icmp slt i32 %6, %15
  br i1 %16, label %22, label %17

17:                                               ; preds = %.lr.ph.split.i
  %18 = getelementptr inbounds nuw i8, ptr %.024.i, i64 40
  %19 = load i64, ptr %18, align 8, !tbaa !12
  %.not19.i = icmp eq i64 %2, %19
  br i1 %.not19.i, label %20, label %22

20:                                               ; preds = %17
  %21 = getelementptr inbounds nuw i8, ptr %.024.i, i64 8
  %bcmp.i = tail call i32 @bcmp(ptr readonly %1, ptr nonnull %21, i64 %2)
  %.not20.i = icmp eq i32 %bcmp.i, 0
  br i1 %.not20.i, label %ssl_cache_find_entry.exit, label %22

22:                                               ; preds = %20, %17, %.lr.ph.split.i
  %23 = getelementptr inbounds nuw i8, ptr %.024.i, i64 64
  %.0.i = load ptr, ptr %23, align 8, !tbaa !11
  %.not.i = icmp eq ptr %.0.i, null
  br i1 %.not.i, label %ssl_cache_find_entry.exit.thread, label %.lr.ph.split.i, !llvm.loop !16

ssl_cache_find_entry.exit:                        ; preds = %20, %9
  %.022 = phi ptr [ %.024.us.i, %9 ], [ %.024.i, %20 ]
  %24 = icmp eq ptr %.022, %.022.i
  br i1 %24, label %25, label %.preheader

25:                                               ; preds = %ssl_cache_find_entry.exit
  %26 = getelementptr inbounds nuw i8, ptr %.022, i64 64
  %27 = load ptr, ptr %26, align 8, !tbaa !25
  store ptr %27, ptr %0, align 8, !tbaa !24
  br label %.thread

.preheader:                                       ; preds = %ssl_cache_find_entry.exit, %30
  %.0 = phi ptr [ %29, %30 ], [ %.022.i, %ssl_cache_find_entry.exit ]
  %28 = getelementptr inbounds nuw i8, ptr %.0, i64 64
  %29 = load ptr, ptr %28, align 8, !tbaa !25
  %.not17 = icmp eq ptr %29, null
  br i1 %.not17, label %.thread, label %30

30:                                               ; preds = %.preheader
  %31 = icmp eq ptr %29, %.022
  br i1 %31, label %32, label %.preheader, !llvm.loop !26

32:                                               ; preds = %30
  %33 = getelementptr inbounds nuw i8, ptr %.0, i64 64
  %34 = getelementptr inbounds nuw i8, ptr %.022, i64 64
  %35 = load ptr, ptr %34, align 8, !tbaa !25
  store ptr %35, ptr %33, align 8, !tbaa !25
  br label %.thread

.thread:                                          ; preds = %.preheader, %25, %32
  %36 = getelementptr inbounds nuw i8, ptr %.022, i64 48
  %37 = load ptr, ptr %36, align 8, !tbaa !19
  %.not.i18 = icmp eq ptr %37, null
  br i1 %.not.i18, label %ssl_cache_entry_zeroize.exit, label %38

38:                                               ; preds = %.thread
  %39 = getelementptr inbounds nuw i8, ptr %.022, i64 56
  %40 = load i64, ptr %39, align 8, !tbaa !20
  tail call void @mbedtls_zeroize_and_free(ptr noundef nonnull %37, i64 noundef %40) #10
  br label %ssl_cache_entry_zeroize.exit

ssl_cache_entry_zeroize.exit:                     ; preds = %38, %.thread
  tail call void @mbedtls_platform_zeroize(ptr noundef nonnull %.022, i64 noundef 72) #10
  tail call void @free(ptr noundef nonnull %.022) #10
  br label %ssl_cache_find_entry.exit.thread

ssl_cache_find_entry.exit.thread:                 ; preds = %22, %11, %3, %ssl_cache_entry_zeroize.exit
  ret i32 0
}